target datalayout = "e-m:e-p270:32:32-p271:32:32-p272:64:64-i64:64-i128:128-f80:128-n8:16:32:64-S128"
target triple = "x86_64-pc-linux-gnu"

%struct.KDF_ARGON2 = type { ptr, i32, ptr, i32, ptr, i32, ptr, i32, ptr, i32, i32, i32, i32, i32, i32, i32, i32, ptr, i32, i32, i32, i32, ptr, ptr, ptr, ptr }

@.str = private unnamed_addr constant [51 x i8] c"../openssl/providers/implementations/kdfs/argon2.c\00", align 1

; Function Attrs: nounwind uwtable
define internal void @kdf_argon2_free(ptr noundef %0) #0 {
  %2 = alloca ptr, align 8
  %3 = alloca ptr, align 8
  %4 = alloca i32, align 4
  store ptr %0, ptr %2, align 8, !tbaa !3
  call void @llvm.lifetime.start.p0(i64 8, ptr %3) #6
  %5 = load ptr, ptr %2, align 8, !tbaa !3
  store ptr %5, ptr %3, align 8, !tbaa !3
  %6 = load ptr, ptr %3, align 8, !tbaa !3
  %7 = icmp eq ptr %6, null
  br i1 %7, label %8, label %9

8:                                                ; preds = %1
  store i32 1, ptr %4, align 4
  br label %73

9:                                                ; preds = %1
  %10 = load ptr, ptr %3, align 8, !tbaa !3
  %11 = getelementptr inbounds nuw %struct.KDF_ARGON2, ptr %10, i32 0, i32 2
  %12 = load ptr, ptr %11, align 8, !tbaa !14
  %13 = icmp ne ptr %12, null
  br i1 %13, label %14, label %22

14:                                               ; preds = %9
  %15 = load ptr, ptr %3, align 8, !tbaa !3
  %16 = getelementptr inbounds nuw %struct.KDF_ARGON2, ptr %15, i32 0, i32 2
  %17 = load ptr, ptr %16, align 8, !tbaa !14
  %18 = load ptr, ptr %3, align 8, !tbaa !3
  %19 = getelementptr inbounds nuw %struct.KDF_ARGON2, ptr %18, i32 0, i32 3
  %20 = load i32, ptr %19, align 8, !tbaa !15
  %21 = zext i32 %20 to i64
  call void @CRYPTO_clear_free(ptr noundef %17, i64 noundef %21, ptr noundef @.str, i32 noundef 993)
  br label %22

22:                                               ; preds = %14, %9
  %23 = load ptr, ptr %3, align 8, !tbaa !3
  %24 = getelementptr inbounds nuw %struct.KDF_ARGON2, ptr %23, i32 0, i32 4
  %25 = load ptr, ptr %24, align 8, !tbaa !16
  %26 = icmp ne ptr %25, null
  br i1 %26, label %27, label %35

27:                                               ; preds = %22
  %28 = load ptr, ptr %3, align 8, !tbaa !3
  %29 = getelementptr inbounds nuw %struct.KDF_ARGON2, ptr %28, i32 0, i32 4
  %30 = load ptr, ptr %29, align 8, !tbaa !16
  %31 = load ptr, ptr %3, align 8, !tbaa !3
  %32 = getelementptr inbounds nuw %struct.KDF_ARGON2, ptr %31, i32 0, i32 5
  %33 = load i32, ptr %32, align 8, !tbaa !17
  %34 = zext i32 %33 to i64
  call void @CRYPTO_clear_free(ptr noundef %30, i64 noundef %34, ptr noundef @.str, i32 noundef 996)
  br label %35

35:                                               ; preds = %27, %22
  %36 = load ptr, ptr %3, align 8, !tbaa !3
  %37 = getelementptr inbounds nuw %struct.KDF_ARGON2, ptr %36, i32 0, i32 6
  %38 = load ptr, ptr %37, align 8, !tbaa !18
  %39 = icmp ne ptr %38, null
  br i1 %39, label %40, label %48

40:                                               ; preds = %35
  %41 = load ptr, ptr %3, align 8, !tbaa !3
  %42 = getelementptr inbounds nuw %struct.KDF_ARGON2, ptr %41, i32 0, i32 6
  %43 = load ptr, ptr %42, align 8, !tbaa !18
  %44 = load ptr, ptr %3, align 8, !tbaa !3
  %45 = getelementptr inbounds nuw %struct.KDF_ARGON2, ptr %44, i32 0, i32 7
  %46 = load i32, ptr %45, align 8, !tbaa !19
  %47 = zext i32 %46 to i64
  call void @CRYPTO_clear_free(ptr noundef %43, i64 noundef %47, ptr noundef @.str, i32 noundef 999)
  br label %48

48:                                               ; preds = %40, %35
  %49 = load ptr, ptr %3, align 8, !tbaa !3
  %50 = getelementptr inbounds nuw %struct.KDF_ARGON2, ptr %49, i32 0, i32 8
  %51 = load ptr, ptr %50, align 8, !tbaa !20
  %52 = icmp ne ptr %51, null
  br i1 %52, label %53, label %61

53:                                               ; preds = %48
  %54 = load ptr, ptr %3, align 8, !tbaa !3
  %55 = getelementptr inbounds nuw %struct.KDF_ARGON2, ptr %54, i32 0, i32 8
  %56 = load ptr, ptr %55, align 8, !tbaa !20
  %57 = load ptr, ptr %3, align 8, !tbaa !3
  %58 = getelementptr inbounds nuw %struct.KDF_ARGON2, ptr %57, i32 0, i32 9
  %59 = load i32, ptr %58, align 8, !tbaa !21
  %60 = zext i32 %59 to i64
  call void @CRYPTO_clear_free(ptr noundef %56, i64 noundef %60, ptr noundef @.str, i32 noundef 1002)
  br label %61

61:                                               ; preds = %53, %48
  %62 = load ptr, ptr %3, align 8, !tbaa !3
  %63 = getelementptr inbounds nuw %struct.KDF_ARGON2, ptr %62, i32 0, i32 23
  %64 = load ptr, ptr %63, align 8, !tbaa !22
  call void @EVP_MD_free(ptr noundef %64)
  %65 = load ptr, ptr %3, align 8, !tbaa !3
  %66 = getelementptr inbounds nuw %struct.KDF_ARGON2, ptr %65, i32 0, i32 24
  %67 = load ptr, ptr %66, align 8, !tbaa !23
  call void @EVP_MAC_free(ptr noundef %67)
  %68 = load ptr, ptr %3, align 8, !tbaa !3
  %69 = getelementptr inbounds nuw %struct.KDF_ARGON2, ptr %68, i32 0, i32 25
  %70 = load ptr, ptr %69, align 8, !tbaa !24
  call void @CRYPTO_free(ptr noundef %70, ptr noundef @.str, i32 noundef 1007)
  %71 = load ptr, ptr %3, align 8, !tbaa !3
  call void @llvm.memset.p0.i64(ptr align 8 %71, i8 0, i64 160, i1 false)
  %72 = load ptr, ptr %3, align 8, !tbaa !3
  call void @CRYPTO_free(ptr noundef %72, ptr noundef @.str, i32 noundef 1011)
  store i32 0, ptr %4, align 4
  br label %73

73:                                               ; preds = %61, %8
  call void @llvm.lifetime.end.p0(i64 8, ptr %3) #6
  %74 = load i32, ptr %4, align 4
  switch i32 %74, label %76 [
    i32 0, label %75
    i32 1, label %75
  ]

75:                                               ; preds = %73, %73
  ret void

76:                                               ; preds = %73
  unreachable
}