; Function Attrs: nounwind uwtable
define internal void @kdf_argon2_free(ptr noundef %0) #0 {
  %2 = icmp eq ptr %0, null
  br i1 %2, label %38, label %3

3:                                                ; preds = %1
  %4 = getelementptr inbounds nuw i8, ptr %0, i64 16
  %5 = load ptr, ptr %4, align 8, !tbaa !20
  %.not = icmp eq ptr %5, null
  br i1 %.not, label %10, label %6

6:                                                ; preds = %3
  %7 = getelementptr inbounds nuw i8, ptr %0, i64 24
  %8 = load i32, ptr %7, align 8, !tbaa !21
  %9 = zext i32 %8 to i64
  tail call void @CRYPTO_clear_free(ptr noundef nonnull %5, i64 noundef %9, ptr noundef nonnull @.str, i32 noundef 993) #10
  br label %10

10:                                               ; preds = %6, %3
  %11 = getelementptr inbounds nuw i8, ptr %0, i64 32
  %12 = load ptr, ptr %11, align 8, !tbaa !22
  %.not23 = icmp eq ptr %12, null
  br i1 %.not23, label %17, label %13

13:                                               ; preds = %10
  %14 = getelementptr inbounds nuw i8, ptr %0, i64 40
  %15 = load i32, ptr %14, align 8, !tbaa !23
  %16 = zext i32 %15 to i64
  tail call void @CRYPTO_clear_free(ptr noundef nonnull %12, i64 noundef %16, ptr noundef nonnull @.str, i32 noundef 996) #10
  br label %17

17:                                               ; preds = %13, %10
  %18 = getelementptr inbounds nuw i8, ptr %0, i64 48
  %19 = load ptr, ptr %18, align 8, !tbaa !24
  %.not24 = icmp eq ptr %19, null
  br i1 %.not24, label %24, label %20

20:                                               ; preds = %17
  %21 = getelementptr inbounds nuw i8, ptr %0, i64 56
  %22 = load i32, ptr %21, align 8, !tbaa !25
  %23 = zext i32 %22 to i64
  tail call void @CRYPTO_clear_free(ptr noundef nonnull %19, i64 noundef %23, ptr noundef nonnull @.str, i32 noundef 999) #10
  br label %24

24:                                               ; preds = %20, %17
  %25 = getelementptr inbounds nuw i8, ptr %0, i64 64
  %26 = load ptr, ptr %25, align 8, !tbaa !26
  %.not25 = icmp eq ptr %26, null
  br i1 %.not25, label %31, label %27

27:                                               ; preds = %24
  %28 = getelementptr inbounds nuw i8, ptr %0, i64 72
  %29 = load i32, ptr %28, align 8, !tbaa !27
  %30 = zext i32 %29 to i64
  tail call void @CRYPTO_clear_free(ptr noundef nonnull %26, i64 noundef %30, ptr noundef nonnull @.str, i32 noundef 1002) #10
  br label %31

31:                                               ; preds = %27, %24
  %32 = getelementptr inbounds nuw i8, ptr %0, i64 136
  %33 = load ptr, ptr %32, align 8, !tbaa !28
  tail call void @EVP_MD_free(ptr noundef %33) #10
  %34 = getelementptr inbounds nuw i8, ptr %0, i64 144
  %35 = load ptr, ptr %34, align 8, !tbaa !29
  tail call void @EVP_MAC_free(ptr noundef %35) #10
  %36 = getelementptr inbounds nuw i8, ptr %0, i64 152
  %37 = load ptr, ptr %36, align 8, !tbaa !30
  tail call void @CRYPTO_free(ptr noundef %37, ptr noundef nonnull @.str, i32 noundef 1007) #10
  tail call void @llvm.memset.p0.i64(ptr noundef nonnull align 8 dereferenceable(160) %0, i8 0, i64 160, i1 false)
  tail call void @CRYPTO_free(ptr noundef nonnull %0, ptr noundef nonnull @.str, i32 noundef 1011) #10
  br label %38

38:                                               ; preds = %1, %31
  ret void
}